target datalayout = "e-m:e-p270:32:32-p271:32:32-p272:64:64-i64:64-i128:128-f80:128-n8:16:32:64-S128"
target triple = "x86_64-pc-linux-gnu"

%struct.ossl_param_st = type { ptr, i32, ptr, i64, i64 }

@.str.5 = private unnamed_addr constant [4 x i8] c"PVK\00", align 1
@__const.ossl_pw_get_password.params = private unnamed_addr constant [2 x { ptr, i32, [4 x i8], ptr, i64, i64 }] [{ ptr, i32, [4 x i8], ptr, i64, i64 } { ptr @.str.1, i32 4, [4 x i8] zeroinitializer, ptr null, i64 0, i64 -1 }, { ptr, i32, [4 x i8], ptr, i64, i64 } zeroinitializer], align 16

; Function Attrs: nounwind uwtable
define internal i32 @ossl_pw_get_password(ptr noundef %0, i32 noundef %1, i32 noundef %2, ptr noundef %3, ptr noundef %4) #0 {
  %6 = alloca i32, align 4
  %7 = alloca ptr, align 8
  %8 = alloca i32, align 4
  %9 = alloca i32, align 4
  %10 = alloca ptr, align 8
  %11 = alloca ptr, align 8
  %12 = alloca i64, align 8
  %13 = alloca [2 x %struct.ossl_param_st], align 16
  %14 = alloca i32, align 4
  store ptr %0, ptr %7, align 8, !tbaa !16
  store i32 %1, ptr %8, align 4, !tbaa !25
  store i32 %2, ptr %9, align 4, !tbaa !25
  store ptr %3, ptr %10, align 8, !tbaa !18
  store ptr %4, ptr %11, align 8, !tbaa !16
  call void @llvm.lifetime.start.p0(i64 8, ptr %12) #6
  store i64 0, ptr %12, align 8, !tbaa !17
  call void @llvm.lifetime.start.p0(i64 80, ptr %13) #6
  call void @llvm.memcpy.p0.p0.i64(ptr align 16 %13, ptr align 16 @__const.ossl_pw_get_password.params, i64 80, i1 false)
  %15 = load ptr, ptr %11, align 8, !tbaa !16
  %16 = getelementptr inbounds [2 x %struct.ossl_param_st], ptr %13, i64 0, i64 0
  %17 = getelementptr inbounds nuw %struct.ossl_param_st, ptr %16, i32 0, i32 2
  store ptr %15, ptr %17, align 16, !tbaa !28
  %18 = load ptr, ptr %7, align 8, !tbaa !16
  %19 = load i32, ptr %8, align 4, !tbaa !25
  %20 = sext i32 %19 to i64
  %21 = getelementptr inbounds [2 x %struct.ossl_param_st], ptr %13, i64 0, i64 0
  %22 = load i32, ptr %9, align 4, !tbaa !25
  %23 = load ptr, ptr %10, align 8, !tbaa !18
  %24 = call i32 @ossl_pw_get_passphrase(ptr noundef %18, i64 noundef %20, ptr noundef %12, ptr noundef %21, i32 noundef %22, ptr noundef %23)
  %25 = icmp ne i32 %24, 0
  br i1 %25, label %26, label %29

26:                                               ; preds = %5
  %27 = load i64, ptr %12, align 8, !tbaa !17
  %28 = trunc i64 %27 to i32
  store i32 %28, ptr %6, align 4
  store i32 1, ptr %14, align 4
  br label %30

29:                                               ; preds = %5
  store i32 -1, ptr %6, align 4
  store i32 1, ptr %14, align 4
  br label %30

30:                                               ; preds = %29, %26
  call void @llvm.lifetime.end.p0(i64 80, ptr %13) #6
  call void @llvm.lifetime.end.p0(i64 8, ptr %12) #6
  %31 = load i32, ptr %6, align 4
  ret i32 %31
}

; Function Attrs: nounwind uwtable
define i32 @ossl_pw_pvk_password(ptr noundef %0, i32 noundef %1, i32 noundef %2, ptr noundef %3) #0 {
  %5 = alloca ptr, align 8
  %6 = alloca i32, align 4
  %7 = alloca i32, align 4
  %8 = alloca ptr, align 8
  store ptr %0, ptr %5, align 8, !tbaa !16
  store i32 %1, ptr %6, align 4, !tbaa !25
  store i32 %2, ptr %7, align 4, !tbaa !25
  store ptr %3, ptr %8, align 8, !tbaa !18
  %9 = load ptr, ptr %5, align 8, !tbaa !16
  %10 = load i32, ptr %6, align 4, !tbaa !25
  %11 = load i32, ptr %7, align 4, !tbaa !25
  %12 = load ptr, ptr %8, align 8, !tbaa !18
  %13 = call i32 @ossl_pw_get_password(ptr noundef %9, i32 noundef %10, i32 noundef %11, ptr noundef %12, ptr noundef @.str.5)
  ret i32 %13
}